Certificate:
    Data:
        Version: 3 (0x2)
        Serial Number: 1 (0x1)
        Signature Algorithm: md5WithRSAEncryption
        Issuer: CN=Example CA, ST=Liege, C=BE/Email=ca@overbyte.be, O=OverByte sprl
        Validity
            Not Before: Feb  1 16:04:30 2003 GMT
            Not After : Feb  1 16:04:30 2004 GMT
        Subject: C=BE, ST=Liege, O=OverByte sprl, CN=www.overbyte.be/Email=ca@overbyte.be
        Subject Public Key Info:
            Public Key Algorithm: rsaEncryption
            RSA Public Key: (1024 bit)
                Modulus (1024 bit):
                    00:c8:63:96:0e:f9:95:72:e4:2b:64:5f:07:a1:a6:
                    03:8a:63:26:30:90:2b:1c:ec:19:a5:74:d8:dd:a7:
                    c9:a0:1f:7c:f9:83:f3:a3:7c:e4:b0:55:5b:41:c2:
                    4e:31:1d:48:e8:b6:24:bf:e6:4b:7f:e7:bb:c5:be:
                    fc:c8:38:d1:a4:fd:e7:7a:28:10:39:32:c7:5d:19:
                    7c:38:38:5c:fc:48:47:91:2e:fc:d8:b1:ca:33:a6:
                    d6:6f:44:51:97:97:b6:9f:9d:1e:de:8c:fd:a1:e9:
                    ce:fa:e4:8a:23:ea:84:0d:2e:e2:04:35:9c:3d:f1:
                    82:26:a4:66:66:64:d5:43:b3
                Exponent: 65537 (0x10001)
        X509v3 extensions:
            X509v3 Basic Constraints: 
                CA:FALSE
            Netscape Comment: 
                OpenSSL Generated Certificate
            X509v3 Subject Key Identifier: 
                F3:D5:F2:BB:66:34:7F:28:E3:DD:50:1D:E7:90:CC:EA:2D:EB:F1:B9
            X509v3 Authority Key Identifier: 
                DirName:/CN=Example CA/ST=Liege/C=BE/Email=ca@overbyte.be/O=OverByte sprl
                serial:00

    Signature Algorithm: md5WithRSAEncryption
        5e:22:27:a8:55:73:1b:2e:9c:71:65:06:df:f1:2f:1c:80:e8:
        a2:47:36:ec:cf:fb:f0:24:49:ec:32:f7:72:32:b3:2b:ea:36:
        81:2f:46:93:2d:47:7c:9e:75:84:01:c0:66:88:f8:87:da:54:
        b1:af:c6:44:0a:2b:35:da:65:e6:e6:d2:36:41:6e:92:3b:0d:
        e9:fc:24:73:79:a4:2e:bf:30:7f:d4:fa:2a:5c:aa:64:db:75:
        23:ad:4d:5d:eb:af:83:1a:44:95:a8:f5:9a:22:b2:ca:d2:95:
        ff:aa:91:a7:40:1e:a5:e0:f4:a9:42:d1:c3:b2:fc:18:2f:8e:
        6f:ae:97:29:db:8c:65:a8:6f:be:ba:69:6f:f0:08:a9:8c:3d:
        5d:03:c9:14:cb:31:07:c7:26:9d:82:5b:e4:98:29:22:af:ac:
        97:77:d6:71:94:e2:29:e9:47:d2:26:b5:8c:4c:ca:23:9e:c2:
        95:12:00:fd:80:be:9a:6a:3d:ba:6f:a8:9a:e9:d1:4c:45:bd:
        29:2f:66:f5:fe:91:c1:de:dd:8c:11:6b:35:38:9a:0a:ba:ef:
        ce:23:56:f1:2a:8a:1f:69:2d:c1:8a:d0:06:64:b2:89:c8:c9:
        47:3d:fc:90:06:28:e0:e9:61:e2:56:51:fa:9b:e6:2a:85:36:
        a4:8c:f4:eb
-----BEGIN CERTIFICATE-----
MIIDpzCCAo+gAwIBAgIBATANBgkqhkiG9w0BAQQFADBpMRMwEQYDVQQDEwpFeGFt
cGxlIENBMQ4wDAYDVQQIEwVMaWVnZTELMAkGA1UEBhMCQkUxHTAbBgkqhkiG9w0B
CQEWDmNhQG92ZXJieXRlLmJlMRYwFAYDVQQKEw1PdmVyQnl0ZSBzcHJsMB4XDTAz
MDIwMTE2MDQzMFoXDTA0MDIwMTE2MDQzMFowbjELMAkGA1UEBhMCQkUxDjAMBgNV
BAgTBUxpZWdlMRYwFAYDVQQKEw1PdmVyQnl0ZSBzcHJsMRgwFgYDVQQDEw93d3cu
b3ZlcmJ5dGUuYmUxHTAbBgkqhkiG9w0BCQEWDmNhQG92ZXJieXRlLmJlMIGfMA0G
CSqGSIb3DQEBAQUAA4GNADCBiQKBgQDIY5YO+ZVy5CtkXwehpgOKYyYwkCsc7Bml
dNjdp8mgH3z5g/OjfOSwVVtBwk4xHUjotiS/5kt/57vFvvzIONGk/ed6KBA5Msdd
GXw4OFz8SEeRLvzYscozptZvRFGXl7afnR7ejP2h6c765Ioj6oQNLuIENZw98YIm
pGZmZNVDswIDAQABo4HYMIHVMAkGA1UdEwQCMAAwLAYJYIZIAYb4QgENBB8WHU9w
ZW5TU0wgR2VuZXJhdGVkIENlcnRpZmljYXRlMB0GA1UdDgQWBBTz1fK7ZjR/KOPd
UB3nkMzqLevxuTB7BgNVHSMEdDByoW2kazBpMRMwEQYDVQQDEwpFeGFtcGxlIENB
MQ4wDAYDVQQIEwVMaWVnZTELMAkGA1UEBhMCQkUxHTAbBgkqhkiG9w0BCQEWDmNh
QG92ZXJieXRlLmJlMRYwFAYDVQQKEw1PdmVyQnl0ZSBzcHJsggEAMA0GCSqGSIb3
DQEBBAUAA4IBAQBeIieoVXMbLpxxZQbf8S8cgOiiRzbsz/vwJEnsMvdyMrMr6jaB
L0aTLUd8nnWEAcBmiPiH2lSxr8ZECis12mXm5tI2QW6SOw3p/CRzeaQuvzB/1Poq
XKpk23UjrU1d66+DGkSVqPWaIrLK0pX/qpGnQB6l4PSpQtHDsvwYL45vrpcp24xl
qG++umlv8AipjD1dA8kUyzEHxyadglvkmCkir6yXd9ZxlOIp6UfSJrWMTMojnsKV
EgD9gL6aaj26b6ia6dFMRb0pL2b1/pHB3t2MEWs1OJoKuu/OI1bxKoofaS3BitAG
ZLKJyMlHPfyQBijg6WHiVlH6m+YqhTakjPTr
-----END CERTIFICATE-----
